target datalayout = "e-m:e-p270:32:32-p271:32:32-p272:64:64-i64:64-i128:128-f80:128-n8:16:32:64-S128"
target triple = "x86_64-pc-linux-gnu"

; Function Attrs: nounwind uwtable
define i32 @exr_compression_lines_per_chunk(i32 noundef %0) #0 {
  %2 = alloca i32, align 4
  %3 = alloca i32, align 4
  store i32 %0, ptr %2, align 4, !tbaa !10
  call void @llvm.lifetime.start.p0(i64 4, ptr %3) #4
  store i32 -1, ptr %3, align 4, !tbaa !10
  %4 = load i32, ptr %2, align 4, !tbaa !10
  switch i32 %4, label %10 [
    i32 0, label %5
    i32 1, label %5
    i32 2, label %5
    i32 3, label %6
    i32 5, label %6
    i32 4, label %7
    i32 6, label %7
    i32 7, label %7
    i32 8, label %7
    i32 9, label %8
    i32 10, label %9
  ]

5:                                                ; preds = %1, %1, %1
  store i32 1, ptr %3, align 4, !tbaa !10
  br label %11

6:                                                ; preds = %1, %1
  store i32 16, ptr %3, align 4, !tbaa !10
  br label %11

7:                                                ; preds = %1, %1, %1, %1
  store i32 32, ptr %3, align 4, !tbaa !10
  br label %11

8:                                                ; preds = %1
  store i32 256, ptr %3, align 4, !tbaa !10
  br label %11

9:                                                ; preds = %1
  br label %10

10:                                               ; preds = %1, %9
  br label %11

11:                                               ; preds = %10, %8, %7, %6, %5
  %12 = load i32, ptr %3, align 4, !tbaa !10
  call void @llvm.lifetime.end.p0(i64 4, ptr %3) #4
  ret i32 %12
}