; Function Attrs: mustprogress nofree norecurse nosync nounwind willreturn memory(none) uwtable
define range(i32 -1, 257) i32 @exr_compression_lines_per_chunk(i32 noundef %0) local_unnamed_addr #3 {
  %2 = icmp ult i32 %0, 10
  br i1 %2, label %switch.lookup, label %4

switch.lookup:                                    ; preds = %1
  %3 = zext nneg i32 %0 to i64
  %switch.gep = getelementptr inbounds nuw [10 x i32], ptr @switch.table.exr_compression_lines_per_chunk, i64 0, i64 %3
  %switch.load = load i32, ptr %switch.gep, align 4
  br label %4

4:                                                ; preds = %switch.lookup, %1
  %.0 = phi i32 [ -1, %1 ], [ %switch.load, %switch.lookup ]
  ret i32 %.0
}